(lp0
(i__main__
Address
p1
(dp2
S'city'
p3
S'Austin'
p4
sS'state'
p5
S'TX'
p6
sS'street'
p7
S'1919 Goods Dr.'
p8
sS'name'
p9
S'Jesse Hodge'
p10
sS'zip'
p11
S'79107'
p12
sba(i__main__
Address
p13
(dp14
g3
S'Austin'
p15
sg5
S'TX'
p16
sg7
S'1919 Goods Dr.'
p17
sg9
S'George'
p18
sg11
S'79107'
p19
sba.